; Function Attrs: noinline noreturn nounwind uwtable
define hidden void @lj_err_trace(ptr noundef %0, i32 noundef %1) local_unnamed_addr #5 {
  %3 = icmp eq i32 %1, 2
  br i1 %3, label %4, label %5

4:                                                ; preds = %2
  tail call void @lj_err_run(ptr noundef %0) #19
  unreachable

5:                                                ; preds = %2
  tail call void @lj_err_throw(ptr noundef %0, i32 noundef %1) #19
  unreachable
}